target datalayout = "e-m:e-p270:32:32-p271:32:32-p272:64:64-i64:64-i128:128-f80:128-n8:16:32:64-S128"
target triple = "x86_64-pc-linux-gnu"

%struct.ConnectionType = type { ptr, ptr, ptr, ptr, ptr, ptr, ptr, ptr, ptr, ptr, ptr, ptr, ptr, ptr, ptr, ptr, ptr, ptr, ptr, ptr, ptr, ptr, ptr, ptr, ptr, ptr, ptr, ptr, ptr, ptr }

@connTypes = internal global [8 x ptr] zeroinitializer, align 16

; Function Attrs: nounwind uwtable
define dso_local i32 @connTypeProcessPendingData(ptr noundef %0) #0 {
  %2 = alloca ptr, align 8
  %3 = alloca ptr, align 8
  %4 = alloca i32, align 4
  %5 = alloca i32, align 4
  store ptr %0, ptr %2, align 8, !tbaa !50
  call void @llvm.lifetime.start.p0(i64 8, ptr %3) #6
  call void @llvm.lifetime.start.p0(i64 4, ptr %4) #6
  call void @llvm.lifetime.start.p0(i64 4, ptr %5) #6
  store i32 0, ptr %5, align 4, !tbaa !14
  store i32 0, ptr %4, align 4, !tbaa !14
  br label %6

6:                                                ; preds = %30, %1
  %7 = load i32, ptr %4, align 4, !tbaa !14
  %8 = icmp slt i32 %7, 8
  br i1 %8, label %9, label %33

9:                                                ; preds = %6
  %10 = load i32, ptr %4, align 4, !tbaa !14
  %11 = sext i32 %10 to i64
  %12 = getelementptr inbounds [8 x ptr], ptr @connTypes, i64 0, i64 %11
  %13 = load ptr, ptr %12, align 8, !tbaa !5
  store ptr %13, ptr %3, align 8, !tbaa !5
  %14 = load ptr, ptr %3, align 8, !tbaa !5
  %15 = icmp ne ptr %14, null
  br i1 %15, label %16, label %29

16:                                               ; preds = %9
  %17 = load ptr, ptr %3, align 8, !tbaa !5
  %18 = getelementptr inbounds nuw %struct.ConnectionType, ptr %17, i32 0, i32 28
  %19 = load ptr, ptr %18, align 8, !tbaa !53
  %20 = icmp ne ptr %19, null
  br i1 %20, label %21, label %29

21:                                               ; preds = %16
  %22 = load ptr, ptr %3, align 8, !tbaa !5
  %23 = getelementptr inbounds nuw %struct.ConnectionType, ptr %22, i32 0, i32 28
  %24 = load ptr, ptr %23, align 8, !tbaa !53
  %25 = load ptr, ptr %2, align 8, !tbaa !50
  %26 = call i32 %24(ptr noundef %25)
  %27 = load i32, ptr %5, align 4, !tbaa !14
  %28 = add nsw i32 %27, %26
  store i32 %28, ptr %5, align 4, !tbaa !14
  br label %29

29:                                               ; preds = %21, %16, %9
  br label %30

30:                                               ; preds = %29
  %31 = load i32, ptr %4, align 4, !tbaa !14
  %32 = add nsw i32 %31, 1
  store i32 %32, ptr %4, align 4, !tbaa !14
  br label %6, !llvm.loop !54

33:                                               ; preds = %6
  %34 = load i32, ptr %5, align 4, !tbaa !14
  call void @llvm.lifetime.end.p0(i64 4, ptr %5) #6
  call void @llvm.lifetime.end.p0(i64 4, ptr %4) #6
  call void @llvm.lifetime.end.p0(i64 8, ptr %3) #6
  ret i32 %34
}