; Function Attrs: nounwind uwtable
define dso_local i32 @connTypeProcessPendingData(ptr noundef %0) local_unnamed_addr #0 {
  br label %2

2:                                                ; preds = %1, %11
  %indvars.iv = phi i64 [ 0, %1 ], [ %indvars.iv.next, %11 ]
  %.013 = phi i32 [ 0, %1 ], [ %.1, %11 ]
  %3 = getelementptr inbounds nuw [8 x ptr], ptr @connTypes, i64 0, i64 %indvars.iv
  %4 = load ptr, ptr %3, align 8, !tbaa !10
  %.not = icmp eq ptr %4, null
  br i1 %.not, label %11, label %5

5:                                                ; preds = %2
  %6 = getelementptr inbounds nuw i8, ptr %4, i64 224
  %7 = load ptr, ptr %6, align 8, !tbaa !51
  %.not11 = icmp eq ptr %7, null
  br i1 %.not11, label %11, label %8

8:                                                ; preds = %5
  %9 = tail call i32 %7(ptr noundef %0) #4
  %10 = add nsw i32 %9, %.013
  br label %11

11:                                               ; preds = %2, %5, %8
  %.1 = phi i32 [ %10, %8 ], [ %.013, %5 ], [ %.013, %2 ]
  %indvars.iv.next = add nuw nsw i64 %indvars.iv, 1
  %exitcond.not = icmp eq i64 %indvars.iv.next, 8
  br i1 %exitcond.not, label %12, label %2, !llvm.loop !52

12:                                               ; preds = %11
  ret i32 %.1
}